; Function Attrs: mustprogress uwtable
define hidden noundef double @_ZN2cv4face15FacemarkLBFImpl3LBF12calcVarianceERKNS_3MatE(ptr nonnull readnone align 1 captures(none) %0, ptr noundef nonnull align 8 dereferenceable(96) %1) local_unnamed_addr #3 align 2 personality ptr @__gxx_personality_v0 {
  %3 = alloca %"class.cv::Scalar_", align 8
  %4 = alloca %"class.cv::_InputArray", align 8
  %5 = alloca %"class.cv::Scalar_", align 8
  %6 = alloca %"class.cv::_InputArray", align 8
  %7 = alloca %"class.cv::MatExpr", align 8
  %8 = alloca %"class.cv::_InputArray", align 8
  call void @llvm.lifetime.start.p0(i64 32, ptr nonnull %3) #31
  call void @llvm.lifetime.start.p0(i64 24, ptr nonnull %4) #31
  %9 = getelementptr inbounds nuw i8, ptr %4, i64 16
  store i32 0, ptr %9, align 8, !tbaa !155
  %10 = getelementptr inbounds nuw i8, ptr %4, i64 20
  store i32 0, ptr %10, align 4, !tbaa !156
  store i32 16842752, ptr %4, align 8, !tbaa !157
  %11 = getelementptr inbounds nuw i8, ptr %4, i64 8
  store ptr %1, ptr %11, align 8, !tbaa !134
  %12 = tail call noundef nonnull align 8 dereferenceable(24) ptr @_ZN2cv7noArrayEv()
  call void @_ZN2cv4meanERKNS_11_InputArrayES2_(ptr dead_on_unwind nonnull writable sret(%"class.cv::Scalar_") align 8 %3, ptr noundef nonnull align 8 dereferenceable(24) %4, ptr noundef nonnull align 8 dereferenceable(24) %12)
  %13 = load double, ptr %3, align 8, !tbaa !46
  call void @llvm.lifetime.end.p0(i64 24, ptr nonnull %4) #31
  call void @llvm.lifetime.end.p0(i64 32, ptr nonnull %3) #31
  call void @llvm.lifetime.start.p0(i64 32, ptr nonnull %5) #31
  call void @llvm.lifetime.start.p0(i64 24, ptr nonnull %6) #31
  call void @llvm.lifetime.start.p0(i64 352, ptr nonnull %7) #31
  call void @llvm.lifetime.start.p0(i64 24, ptr nonnull %8) #31
  %14 = getelementptr inbounds nuw i8, ptr %8, i64 16
  store i32 0, ptr %14, align 8, !tbaa !155
  %15 = getelementptr inbounds nuw i8, ptr %8, i64 20
  store i32 0, ptr %15, align 4, !tbaa !156
  store i32 16842752, ptr %8, align 8, !tbaa !157
  %16 = getelementptr inbounds nuw i8, ptr %8, i64 8
  store ptr %1, ptr %16, align 8, !tbaa !134
  call void @_ZNK2cv3Mat3mulERKNS_11_InputArrayEd(ptr dead_on_unwind nonnull writable sret(%"class.cv::MatExpr") align 8 %7, ptr noundef nonnull align 8 dereferenceable(96) %1, ptr noundef nonnull align 8 dereferenceable(24) %8, double noundef 1.000000e+00)
  invoke void @_ZN2cv11_InputArrayC1ERKNS_7MatExprE(ptr noundef nonnull align 8 dereferenceable(24) %6, ptr noundef nonnull align 8 dereferenceable(352) %7)
          to label %17 unwind label %27

17:                                               ; preds = %2
  %18 = invoke noundef nonnull align 8 dereferenceable(24) ptr @_ZN2cv7noArrayEv()
          to label %19 unwind label %29

19:                                               ; preds = %17
  invoke void @_ZN2cv4meanERKNS_11_InputArrayES2_(ptr dead_on_unwind nonnull writable sret(%"class.cv::Scalar_") align 8 %5, ptr noundef nonnull align 8 dereferenceable(24) %6, ptr noundef nonnull align 8 dereferenceable(24) %18)
          to label %20 unwind label %29

20:                                               ; preds = %19
  %21 = load double, ptr %5, align 8, !tbaa !46
  %22 = getelementptr inbounds nuw i8, ptr %7, i64 208
  call void @_ZN2cv3MatD1Ev(ptr noundef nonnull align 8 dereferenceable(96) %22) #31
  %23 = getelementptr inbounds nuw i8, ptr %7, i64 112
  call void @_ZN2cv3MatD1Ev(ptr noundef nonnull align 8 dereferenceable(96) %23) #31
  %24 = getelementptr inbounds nuw i8, ptr %7, i64 16
  call void @_ZN2cv3MatD1Ev(ptr noundef nonnull align 8 dereferenceable(96) %24) #31
  call void @llvm.lifetime.end.p0(i64 24, ptr nonnull %8) #31
  call void @llvm.lifetime.end.p0(i64 352, ptr nonnull %7) #31
  call void @llvm.lifetime.end.p0(i64 24, ptr nonnull %6) #31
  call void @llvm.lifetime.end.p0(i64 32, ptr nonnull %5) #31
  %25 = fneg double %13
  %26 = call double @llvm.fmuladd.f64(double %25, double %13, double %21)
  ret double %26

27:                                               ; preds = %2
  %28 = landingpad { ptr, i32 }
          cleanup
  br label %31

29:                                               ; preds = %19, %17
  %30 = landingpad { ptr, i32 }
          cleanup
  br label %31

31:                                               ; preds = %29, %27
  %.pn = phi { ptr, i32 } [ %30, %29 ], [ %28, %27 ]
  call void @_ZN2cv7MatExprD2Ev(ptr noundef nonnull align 8 dereferenceable(352) %7) #31
  call void @llvm.lifetime.end.p0(i64 24, ptr nonnull %8) #31
  call void @llvm.lifetime.end.p0(i64 352, ptr nonnull %7) #31
  call void @llvm.lifetime.end.p0(i64 24, ptr nonnull %6) #31
  call void @llvm.lifetime.end.p0(i64 32, ptr nonnull %5) #31
  resume { ptr, i32 } %.pn
}